target datalayout = "e-m:e-p270:32:32-p271:32:32-p272:64:64-i64:64-i128:128-f80:128-n8:16:32:64-S128"
target triple = "x86_64-pc-linux-gnu"

%"class.std::__shared_count" = type { ptr }
%"class.std::_Sp_counted_base" = type { ptr, i32, i32 }
%"class.std::__shared_ptr.298" = type { ptr, %"class.std::__shared_count" }

@__libc_single_threaded = external global i8, align 1

; Function Attrs: mustprogress nounwind uwtable
define linkonce_odr dso_local void @_ZNSt16_Sp_counted_baseILN9__gnu_cxx12_Lock_policyE2EE19_M_release_last_useEv(ptr noundef nonnull align 8 dereferenceable(16) %0) #4 comdat align 2 personality ptr @__gxx_personality_v0 {
  %2 = alloca ptr, align 8
  %3 = alloca i32, align 4
  %4 = alloca i32, align 4
  %5 = alloca i32, align 4
  %6 = alloca ptr, align 8
  %7 = alloca i32, align 4
  %8 = alloca i32, align 4
  %9 = alloca i32, align 4
  %10 = alloca ptr, align 8
  %11 = alloca i32, align 4
  %12 = alloca ptr, align 8
  store ptr %0, ptr %12, align 8
  %13 = load ptr, ptr %12, align 8
  %14 = load ptr, ptr %13, align 8
  %15 = getelementptr inbounds ptr, ptr %14, i64 2
  %16 = load ptr, ptr %15, align 8
  call void %16(ptr noundef nonnull align 8 dereferenceable(16) %13) #3
  %17 = getelementptr inbounds %"class.std::_Sp_counted_base", ptr %13, i32 0, i32 2
  store ptr %17, ptr %10, align 8
  store i32 -1, ptr %11, align 4
  %18 = load i8, ptr @__libc_single_threaded, align 1
  %19 = icmp ne i8 %18, 0
  br i1 %19, label %20, label %30

20:                                               ; preds = %1
  %21 = load ptr, ptr %10, align 8
  %22 = load i32, ptr %11, align 4
  store ptr %21, ptr %6, align 8
  store i32 %22, ptr %7, align 4
  %23 = load ptr, ptr %6, align 8
  %24 = load i32, ptr %23, align 4
  store i32 %24, ptr %8, align 4
  %25 = load i32, ptr %7, align 4
  %26 = load ptr, ptr %6, align 8
  %27 = load i32, ptr %26, align 4
  %28 = add nsw i32 %27, %25
  store i32 %28, ptr %26, align 4
  %29 = load i32, ptr %8, align 4
  store i32 %29, ptr %9, align 4
  br label %38

30:                                               ; preds = %1
  %31 = load ptr, ptr %10, align 8
  %32 = load i32, ptr %11, align 4
  store ptr %31, ptr %2, align 8
  store i32 %32, ptr %3, align 4
  %33 = load ptr, ptr %2, align 8
  %34 = load i32, ptr %3, align 4
  store i32 %34, ptr %4, align 4
  %35 = load i32, ptr %4, align 4
  %36 = atomicrmw volatile add ptr %33, i32 %35 acq_rel, align 4
  store i32 %36, ptr %5, align 4
  %37 = load i32, ptr %5, align 4
  store i32 %37, ptr %9, align 4
  br label %38

38:                                               ; preds = %30, %20
  %39 = load i32, ptr %9, align 4
  br label %40

40:                                               ; preds = %38
  %41 = icmp eq i32 %39, 1
  br i1 %41, label %42, label %46

42:                                               ; preds = %40
  %43 = load ptr, ptr %13, align 8
  %44 = getelementptr inbounds ptr, ptr %43, i64 3
  %45 = load ptr, ptr %44, align 8
  call void %45(ptr noundef nonnull align 8 dereferenceable(16) %13) #3
  br label %46

46:                                               ; preds = %42, %40
  ret void

47:                                               ; No predecessors!
  %48 = landingpad { ptr, i32 }
          catch ptr null
  %49 = extractvalue { ptr, i32 } %48, 0
  call void @__clang_call_terminate(ptr %49) #18
  unreachable
}

; Function Attrs: noreturn nounwind uwtable
define linkonce_odr hidden void @__clang_call_terminate(ptr noundef %0) #6 comdat {
  %2 = call ptr @__cxa_begin_catch(ptr %0) #3
  call void @_ZSt9terminatev() #18
  unreachable
}

; Function Attrs: mustprogress nounwind uwtable
define linkonce_odr dso_local void @_ZNSt16_Sp_counted_baseILN9__gnu_cxx12_Lock_policyE2EE24_M_release_last_use_coldEv(ptr noundef nonnull align 8 dereferenceable(16) %0) #4 comdat align 2 {
  %2 = alloca ptr, align 8
  store ptr %0, ptr %2, align 8
  %3 = load ptr, ptr %2, align 8
  call void @_ZNSt16_Sp_counted_baseILN9__gnu_cxx12_Lock_policyE2EE19_M_release_last_useEv(ptr noundef nonnull align 8 dereferenceable(16) %3) #3
  ret void
}

; Function Attrs: mustprogress nounwind uwtable
define linkonce_odr dso_local void @_ZNSt16_Sp_counted_baseILN9__gnu_cxx12_Lock_policyE2EE10_M_releaseEv(ptr noundef nonnull align 8 dereferenceable(16) %0) #4 comdat align 2 personality ptr @__gxx_personality_v0 {
  %2 = alloca ptr, align 8
  %3 = alloca i32, align 4
  %4 = alloca i32, align 4
  %5 = alloca i32, align 4
  %6 = alloca ptr, align 8
  %7 = alloca i32, align 4
  %8 = alloca i32, align 4
  %9 = alloca i32, align 4
  %10 = alloca ptr, align 8
  %11 = alloca i32, align 4
  %12 = alloca ptr, align 8
  %13 = alloca i8, align 1
  %14 = alloca i8, align 1
  %15 = alloca i8, align 1
  %16 = alloca i32, align 4
  %17 = alloca i32, align 4
  %18 = alloca i64, align 8
  %19 = alloca ptr, align 8
  %20 = alloca i64, align 8
  store ptr %0, ptr %12, align 8
  %21 = load ptr, ptr %12, align 8
  store i8 1, ptr %13, align 1
  store i8 1, ptr %14, align 1
  store i8 1, ptr %15, align 1
  store i32 32, ptr %16, align 4
  store i32 32, ptr %17, align 4
  store i64 4294967297, ptr %18, align 8
  %22 = getelementptr inbounds %"class.std::_Sp_counted_base", ptr %21, i32 0, i32 1
  store ptr %22, ptr %19, align 8
  %23 = load ptr, ptr %19, align 8
  %24 = load atomic i64, ptr %23 acquire, align 8
  store i64 %24, ptr %20, align 8
  %25 = load i64, ptr %20, align 8
  %26 = icmp eq i64 %25, 4294967297
  br i1 %26, label %27, label %36

27:                                               ; preds = %1
  %28 = getelementptr inbounds %"class.std::_Sp_counted_base", ptr %21, i32 0, i32 1
  store i32 0, ptr %28, align 8
  %29 = getelementptr inbounds %"class.std::_Sp_counted_base", ptr %21, i32 0, i32 2
  store i32 0, ptr %29, align 4
  %30 = load ptr, ptr %21, align 8
  %31 = getelementptr inbounds ptr, ptr %30, i64 2
  %32 = load ptr, ptr %31, align 8
  call void %32(ptr noundef nonnull align 8 dereferenceable(16) %21) #3
  %33 = load ptr, ptr %21, align 8
  %34 = getelementptr inbounds ptr, ptr %33, i64 3
  %35 = load ptr, ptr %34, align 8
  call void %35(ptr noundef nonnull align 8 dereferenceable(16) %21) #3
  br label %63

36:                                               ; preds = %1
  %37 = getelementptr inbounds %"class.std::_Sp_counted_base", ptr %21, i32 0, i32 1
  store ptr %37, ptr %10, align 8
  store i32 -1, ptr %11, align 4
  %38 = load i8, ptr @__libc_single_threaded, align 1
  %39 = icmp ne i8 %38, 0
  br i1 %39, label %40, label %50

40:                                               ; preds = %36
  %41 = load ptr, ptr %10, align 8
  %42 = load i32, ptr %11, align 4
  store ptr %41, ptr %6, align 8
  store i32 %42, ptr %7, align 4
  %43 = load ptr, ptr %6, align 8
  %44 = load i32, ptr %43, align 4
  store i32 %44, ptr %8, align 4
  %45 = load i32, ptr %7, align 4
  %46 = load ptr, ptr %6, align 8
  %47 = load i32, ptr %46, align 4
  %48 = add nsw i32 %47, %45
  store i32 %48, ptr %46, align 4
  %49 = load i32, ptr %8, align 4
  store i32 %49, ptr %9, align 4
  br label %58

50:                                               ; preds = %36
  %51 = load ptr, ptr %10, align 8
  %52 = load i32, ptr %11, align 4
  store ptr %51, ptr %2, align 8
  store i32 %52, ptr %3, align 4
  %53 = load ptr, ptr %2, align 8
  %54 = load i32, ptr %3, align 4
  store i32 %54, ptr %4, align 4
  %55 = load i32, ptr %4, align 4
  %56 = atomicrmw volatile add ptr %53, i32 %55 acq_rel, align 4
  store i32 %56, ptr %5, align 4
  %57 = load i32, ptr %5, align 4
  store i32 %57, ptr %9, align 4
  br label %58

58:                                               ; preds = %50, %40
  %59 = load i32, ptr %9, align 4
  br label %60

60:                                               ; preds = %58
  %61 = icmp eq i32 %59, 1
  br i1 %61, label %62, label %63

62:                                               ; preds = %60
  call void @_ZNSt16_Sp_counted_baseILN9__gnu_cxx12_Lock_policyE2EE24_M_release_last_use_coldEv(ptr noundef nonnull align 8 dereferenceable(16) %21) #3
  br label %63

63:                                               ; preds = %62, %60, %27
  ret void

64:                                               ; No predecessors!
  %65 = landingpad { ptr, i32 }
          catch ptr null
  %66 = extractvalue { ptr, i32 } %65, 0
  call void @__clang_call_terminate(ptr %66) #18
  unreachable
}

; Function Attrs: mustprogress nounwind uwtable
define linkonce_odr dso_local void @_ZNSt14__shared_countILN9__gnu_cxx12_Lock_policyE2EED2Ev(ptr noundef nonnull align 8 dereferenceable(8) %0) unnamed_addr #4 comdat align 2 {
  %2 = alloca ptr, align 8
  store ptr %0, ptr %2, align 8
  %3 = load ptr, ptr %2, align 8
  %4 = getelementptr inbounds %"class.std::__shared_count", ptr %3, i32 0, i32 0
  %5 = load ptr, ptr %4, align 8
  %6 = icmp ne ptr %5, null
  br i1 %6, label %7, label %10

7:                                                ; preds = %1
  %8 = getelementptr inbounds %"class.std::__shared_count", ptr %3, i32 0, i32 0
  %9 = load ptr, ptr %8, align 8
  call void @_ZNSt16_Sp_counted_baseILN9__gnu_cxx12_Lock_policyE2EE10_M_releaseEv(ptr noundef nonnull align 8 dereferenceable(16) %9) #3
  br label %10

10:                                               ; preds = %7, %1
  ret void
}

; Function Attrs: mustprogress nounwind uwtable
define internal void @_ZNSt12__shared_ptrIN12_GLOBAL__N_117LoadedCommandImplELN9__gnu_cxx12_Lock_policyE2EED2Ev(ptr noundef nonnull align 8 dereferenceable(16) %0) unnamed_addr #4 align 2 {
  %2 = alloca ptr, align 8
  store ptr %0, ptr %2, align 8
  %3 = load ptr, ptr %2, align 8
  %4 = getelementptr inbounds %"class.std::__shared_ptr.298", ptr %3, i32 0, i32 1
  call void @_ZNSt14__shared_countILN9__gnu_cxx12_Lock_policyE2EED2Ev(ptr noundef nonnull align 8 dereferenceable(8) %4) #3
  ret void
}

; Function Attrs: mustprogress nounwind uwtable
define internal void @_ZNSt10shared_ptrIN12_GLOBAL__N_117LoadedCommandImplEED2Ev(ptr noundef nonnull align 8 dereferenceable(16) %0) unnamed_addr #4 align 2 {
  %2 = alloca ptr, align 8
  store ptr %0, ptr %2, align 8
  %3 = load ptr, ptr %2, align 8
  call void @_ZNSt12__shared_ptrIN12_GLOBAL__N_117LoadedCommandImplELN9__gnu_cxx12_Lock_policyE2EED2Ev(ptr noundef nonnull align 8 dereferenceable(16) %3) #3
  ret void
}